target datalayout = "e-m:e-p270:32:32-p271:32:32-p272:64:64-i64:64-i128:128-f80:128-n8:16:32:64-S128"
target triple = "x86_64-pc-linux-gnu"

%struct._address = type { i32, i32, ptr, ptr }
%struct._rdpudp_conv_info_t = type { i32, i8, %struct._address, i16, ptr, %struct.rdpudp_seq_context_t, %struct.rdpudp_seq_context_t, ptr, %struct.rdpudp_seq_context_t, %struct.rdpudp_seq_context_t }
%struct.rdpudp_seq_context_t = type { i64, i16 }

; Function Attrs: null_pointer_is_valid sspstrong uwtable
define internal zeroext i1 @rdpudp_info_free_cb(ptr noundef %0, i32 noundef %1, ptr noundef %2) #0 {
  %4 = alloca ptr, align 8
  %5 = alloca i32, align 4
  %6 = alloca ptr, align 8
  %7 = alloca ptr, align 8
  store ptr %0, ptr %4, align 8
  store i32 %1, ptr %5, align 4
  store ptr %2, ptr %6, align 8
  call void @llvm.lifetime.start.p0(i64 8, ptr %7) #9
  %8 = load ptr, ptr %6, align 8
  store ptr %8, ptr %7, align 8
  %9 = load ptr, ptr %7, align 8
  %10 = getelementptr inbounds nuw %struct._rdpudp_conv_info_t, ptr %9, i32 0, i32 7
  %11 = load ptr, ptr %10, align 8
  %12 = call zeroext i1 @wmem_tree_foreach(ptr noundef %11, ptr noundef @rdpudp_chunk_free_cb, ptr noundef null)
  %13 = load ptr, ptr %7, align 8
  %14 = getelementptr inbounds nuw %struct._rdpudp_conv_info_t, ptr %13, i32 0, i32 4
  %15 = load ptr, ptr %14, align 8
  %16 = call zeroext i1 @wmem_tree_foreach(ptr noundef %15, ptr noundef @rdpudp_chunk_free_cb, ptr noundef null)
  call void @llvm.lifetime.end.p0(i64 8, ptr %7) #9
  ret i1 false
}