; Function Attrs: null_pointer_is_valid sspstrong uwtable
define internal noundef zeroext i1 @rdpudp_info_free_cb(ptr readnone captures(none) %0, i32 %1, ptr noundef readonly captures(none) %2) #0 {
  %4 = getelementptr inbounds nuw i8, ptr %2, i64 80
  %5 = load ptr, ptr %4, align 8
  %6 = tail call zeroext i1 @wmem_tree_foreach(ptr noundef %5, ptr noundef nonnull @rdpudp_chunk_free_cb, ptr noundef null)
  %7 = getelementptr inbounds nuw i8, ptr %2, i64 40
  %8 = load ptr, ptr %7, align 8
  %9 = tail call zeroext i1 @wmem_tree_foreach(ptr noundef %8, ptr noundef nonnull @rdpudp_chunk_free_cb, ptr noundef null)
  ret i1 false
}